target datalayout = "e-m:e-p270:32:32-p271:32:32-p272:64:64-i64:64-i128:128-f80:128-n8:16:32:64-S128"
target triple = "x86_64-pc-linux-gnu"

%struct.fsck_options = type { ptr, ptr, i32, i32, ptr, %struct.oidset, %struct.oidset, %struct.oidset, %struct.oidset, %struct.oidset, ptr }
%struct.oidset = type { %struct.kh_oid_set }
%struct.kh_oid_set = type { i32, i32, i32, i32, ptr, ptr, ptr }
%struct.option = type { i32, i32, ptr, ptr, ptr, ptr, i32, ptr, i64, ptr, i64, ptr }

@the_repository = external global ptr, align 8
@__const.cmd_refs_verify.verify_usage = private unnamed_addr constant [2 x ptr] [ptr @.str.1, ptr null], align 16
@.str.15 = private unnamed_addr constant [8 x i8] c"verbose\00", align 1
@.str.16 = private unnamed_addr constant [11 x i8] c"be verbose\00", align 1
@.str.17 = private unnamed_addr constant [7 x i8] c"strict\00", align 1
@.str.18 = private unnamed_addr constant [23 x i8] c"enable strict checking\00", align 1
@.str.19 = private unnamed_addr constant [37 x i8] c"'git refs verify' takes no arguments\00", align 1

; Function Attrs: inlinehint nounwind uwtable
define internal void @git_config(ptr noundef %0, ptr noundef %1) #6 {
  %3 = alloca ptr, align 8
  %4 = alloca ptr, align 8
  store ptr %0, ptr %3, align 8, !tbaa !15
  store ptr %1, ptr %4, align 8, !tbaa !15
  %5 = load ptr, ptr @the_repository, align 8, !tbaa !13
  %6 = load ptr, ptr %3, align 8, !tbaa !15
  %7 = load ptr, ptr %4, align 8, !tbaa !15
  call void @repo_config(ptr noundef %5, ptr noundef %6, ptr noundef %7)
  ret void
}

; Function Attrs: nounwind uwtable
define internal i32 @cmd_refs_verify(i32 noundef %0, ptr noundef %1, ptr noundef %2, ptr noundef %3) #0 {
  %5 = alloca i32, align 4
  %6 = alloca ptr, align 8
  %7 = alloca ptr, align 8
  %8 = alloca ptr, align 8
  %9 = alloca %struct.fsck_options, align 8
  %10 = alloca ptr, align 8
  %11 = alloca [2 x ptr], align 16
  %12 = alloca [3 x %struct.option], align 16
  %13 = alloca i32, align 4
  %14 = alloca i64, align 8
  store i32 %0, ptr %5, align 4, !tbaa !4
  store ptr %1, ptr %6, align 8, !tbaa !8
  store ptr %2, ptr %7, align 8, !tbaa !11
  store ptr %3, ptr %8, align 8, !tbaa !13
  call void @llvm.lifetime.start.p0(i64 240, ptr %9) #8
  call void @llvm.memcpy.p0.p0.i64(ptr align 8 %9, ptr align 8 @__const.cmd_refs_verify.fsck_refs_options, i64 240, i1 false)
  call void @llvm.lifetime.start.p0(i64 8, ptr %10) #8
  call void @llvm.lifetime.start.p0(i64 16, ptr %11) #8
  call void @llvm.memcpy.p0.p0.i64(ptr align 16 %11, ptr align 16 @__const.cmd_refs_verify.verify_usage, i64 16, i1 false)
  call void @llvm.lifetime.start.p0(i64 264, ptr %12) #8
  %15 = getelementptr inbounds nuw %struct.option, ptr %12, i32 0, i32 0
  store i32 9, ptr %15, align 8, !tbaa !16
  %16 = getelementptr inbounds nuw %struct.option, ptr %12, i32 0, i32 1
  store i32 0, ptr %16, align 4, !tbaa !22
  %17 = getelementptr inbounds nuw %struct.option, ptr %12, i32 0, i32 2
  store ptr @.str.15, ptr %17, align 8, !tbaa !19
  %18 = getelementptr inbounds nuw %struct.option, ptr %12, i32 0, i32 3
  %19 = getelementptr inbounds nuw %struct.fsck_options, ptr %9, i32 0, i32 3
  store ptr %19, ptr %18, align 8, !tbaa !20
  %20 = getelementptr inbounds nuw %struct.option, ptr %12, i32 0, i32 4
  store ptr null, ptr %20, align 8, !tbaa !23
  %21 = getelementptr inbounds nuw %struct.option, ptr %12, i32 0, i32 5
  store ptr @.str.16, ptr %21, align 8, !tbaa !24
  %22 = getelementptr inbounds nuw %struct.option, ptr %12, i32 0, i32 6
  store i32 2, ptr %22, align 8, !tbaa !25
  %23 = getelementptr i8, ptr %12, i64 44
  call void @llvm.memset.p0.i64(ptr align 4 %23, i8 0, i64 4, i1 false)
  %24 = getelementptr inbounds nuw %struct.option, ptr %12, i32 0, i32 7
  store ptr null, ptr %24, align 8, !tbaa !26
  %25 = getelementptr inbounds nuw %struct.option, ptr %12, i32 0, i32 8
  store i64 1, ptr %25, align 8, !tbaa !27
  %26 = getelementptr inbounds nuw %struct.option, ptr %12, i32 0, i32 9
  store ptr null, ptr %26, align 8, !tbaa !28
  %27 = getelementptr inbounds nuw %struct.option, ptr %12, i32 0, i32 10
  store i64 0, ptr %27, align 8, !tbaa !29
  %28 = getelementptr inbounds nuw %struct.option, ptr %12, i32 0, i32 11
  store ptr null, ptr %28, align 8, !tbaa !21
  %29 = getelementptr inbounds %struct.option, ptr %12, i64 1
  %30 = getelementptr inbounds nuw %struct.option, ptr %29, i32 0, i32 0
  store i32 9, ptr %30, align 8, !tbaa !16
  %31 = getelementptr inbounds nuw %struct.option, ptr %29, i32 0, i32 1
  store i32 0, ptr %31, align 4, !tbaa !22
  %32 = getelementptr inbounds nuw %struct.option, ptr %29, i32 0, i32 2
  store ptr @.str.17, ptr %32, align 8, !tbaa !19
  %33 = getelementptr inbounds nuw %struct.option, ptr %29, i32 0, i32 3
  %34 = getelementptr inbounds nuw %struct.fsck_options, ptr %9, i32 0, i32 2
  store ptr %34, ptr %33, align 8, !tbaa !20
  %35 = getelementptr inbounds nuw %struct.option, ptr %29, i32 0, i32 4
  store ptr null, ptr %35, align 8, !tbaa !23
  %36 = getelementptr inbounds nuw %struct.option, ptr %29, i32 0, i32 5
  store ptr @.str.18, ptr %36, align 8, !tbaa !24
  %37 = getelementptr inbounds nuw %struct.option, ptr %29, i32 0, i32 6
  store i32 2, ptr %37, align 8, !tbaa !25
  %38 = getelementptr i8, ptr %29, i64 44
  call void @llvm.memset.p0.i64(ptr align 4 %38, i8 0, i64 4, i1 false)
  %39 = getelementptr inbounds nuw %struct.option, ptr %29, i32 0, i32 7
  store ptr null, ptr %39, align 8, !tbaa !26
  %40 = getelementptr inbounds nuw %struct.option, ptr %29, i32 0, i32 8
  store i64 1, ptr %40, align 8, !tbaa !27
  %41 = getelementptr inbounds nuw %struct.option, ptr %29, i32 0, i32 9
  store ptr null, ptr %41, align 8, !tbaa !28
  %42 = getelementptr inbounds nuw %struct.option, ptr %29, i32 0, i32 10
  store i64 0, ptr %42, align 8, !tbaa !29
  %43 = getelementptr inbounds nuw %struct.option, ptr %29, i32 0, i32 11
  store ptr null, ptr %43, align 8, !tbaa !21
  %44 = getelementptr inbounds %struct.option, ptr %12, i64 2
  call void @llvm.memset.p0.i64(ptr align 8 %44, i8 0, i64 88, i1 false)
  %45 = getelementptr inbounds nuw %struct.option, ptr %44, i32 0, i32 0
  store i32 0, ptr %45, align 8, !tbaa !16
  call void @llvm.lifetime.start.p0(i64 4, ptr %13) #8
  store i32 0, ptr %13, align 4, !tbaa !4
  %46 = load i32, ptr %5, align 4, !tbaa !4
  %47 = load ptr, ptr %6, align 8, !tbaa !8
  %48 = load ptr, ptr %7, align 8, !tbaa !11
  %49 = getelementptr inbounds [3 x %struct.option], ptr %12, i64 0, i64 0
  %50 = getelementptr inbounds [2 x ptr], ptr %11, i64 0, i64 0
  %51 = call i32 @parse_options(i32 noundef %46, ptr noundef %47, ptr noundef %48, ptr noundef %49, ptr noundef %50, i32 noundef 0)
  store i32 %51, ptr %5, align 4, !tbaa !4
  %52 = load i32, ptr %5, align 4, !tbaa !4
  %53 = icmp ne i32 %52, 0
  br i1 %53, label %54, label %56

54:                                               ; preds = %4
  %55 = call ptr @_(ptr noundef @.str.19)
  call void @usage(ptr noundef %55) #9
  unreachable

56:                                               ; preds = %4
  call void @git_config(ptr noundef @git_fsck_config, ptr noundef %9)
  %57 = load ptr, ptr @the_repository, align 8, !tbaa !13
  call void @prepare_repo_settings(ptr noundef %57)
  %58 = call ptr @get_worktrees()
  store ptr %58, ptr %10, align 8, !tbaa !50
  call void @llvm.lifetime.start.p0(i64 8, ptr %14) #8
  store i64 0, ptr %14, align 8, !tbaa !52
  br label %59

59:                                               ; preds = %79, %56
  %60 = load ptr, ptr %10, align 8, !tbaa !50
  %61 = load i64, ptr %14, align 8, !tbaa !52
  %62 = getelementptr inbounds nuw ptr, ptr %60, i64 %61
  %63 = load ptr, ptr %62, align 8, !tbaa !53
  %64 = icmp ne ptr %63, null
  br i1 %64, label %66, label %65

65:                                               ; preds = %59
  call void @llvm.lifetime.end.p0(i64 8, ptr %14) #8
  br label %82

66:                                               ; preds = %59
  %67 = load ptr, ptr %10, align 8, !tbaa !50
  %68 = load i64, ptr %14, align 8, !tbaa !52
  %69 = getelementptr inbounds nuw ptr, ptr %67, i64 %68
  %70 = load ptr, ptr %69, align 8, !tbaa !53
  %71 = call ptr @get_worktree_ref_store(ptr noundef %70)
  %72 = load ptr, ptr %10, align 8, !tbaa !50
  %73 = load i64, ptr %14, align 8, !tbaa !52
  %74 = getelementptr inbounds nuw ptr, ptr %72, i64 %73
  %75 = load ptr, ptr %74, align 8, !tbaa !53
  %76 = call i32 @refs_fsck(ptr noundef %71, ptr noundef %9, ptr noundef %75)
  %77 = load i32, ptr %13, align 4, !tbaa !4
  %78 = or i32 %77, %76
  store i32 %78, ptr %13, align 4, !tbaa !4
  br label %79

79:                                               ; preds = %66
  %80 = load i64, ptr %14, align 8, !tbaa !52
  %81 = add i64 %80, 1
  store i64 %81, ptr %14, align 8, !tbaa !52
  br label %59, !llvm.loop !55

82:                                               ; preds = %65
  call void @fsck_options_clear(ptr noundef %9)
  %83 = load ptr, ptr %10, align 8, !tbaa !50
  call void @free_worktrees(ptr noundef %83)
  %84 = load i32, ptr %13, align 4, !tbaa !4
  call void @llvm.lifetime.end.p0(i64 4, ptr %13) #8
  call void @llvm.lifetime.end.p0(i64 264, ptr %12) #8
  call void @llvm.lifetime.end.p0(i64 16, ptr %11) #8
  call void @llvm.lifetime.end.p0(i64 8, ptr %10) #8
  call void @llvm.lifetime.end.p0(i64 240, ptr %9) #8
  ret i32 %84
}