; Function Attrs: nounwind uwtable
define internal i32 @cmd_refs_verify(i32 noundef %0, ptr noundef %1, ptr noundef %2, ptr readnone captures(none) %3) #0 {
  %5 = alloca %struct.fsck_options, align 8
  %6 = alloca [2 x ptr], align 16
  %7 = alloca [3 x %struct.option], align 16
  call void @llvm.lifetime.start.p0(i64 240, ptr nonnull %5) #8
  call void @llvm.memcpy.p0.p0.i64(ptr noundef nonnull align 8 dereferenceable(240) %5, ptr noundef nonnull align 8 dereferenceable(240) @__const.cmd_refs_verify.fsck_refs_options, i64 240, i1 false)
  call void @llvm.lifetime.start.p0(i64 16, ptr nonnull %6) #8
  call void @llvm.memcpy.p0.p0.i64(ptr noundef nonnull align 16 dereferenceable(16) %6, ptr noundef nonnull align 16 dereferenceable(16) @__const.cmd_refs_verify.verify_usage, i64 16, i1 false)
  call void @llvm.lifetime.start.p0(i64 264, ptr nonnull %7) #8
  store i32 9, ptr %7, align 16, !tbaa !8
  %8 = getelementptr inbounds nuw i8, ptr %7, i64 4
  store i32 0, ptr %8, align 4, !tbaa !18
  %9 = getelementptr inbounds nuw i8, ptr %7, i64 8
  store ptr @.str.15, ptr %9, align 8, !tbaa !13
  %10 = getelementptr inbounds nuw i8, ptr %7, i64 16
  %11 = getelementptr inbounds nuw i8, ptr %5, i64 20
  store ptr %11, ptr %10, align 16, !tbaa !14
  %12 = getelementptr inbounds nuw i8, ptr %7, i64 24
  store ptr null, ptr %12, align 8, !tbaa !19
  %13 = getelementptr inbounds nuw i8, ptr %7, i64 32
  store ptr @.str.16, ptr %13, align 16, !tbaa !20
  %14 = getelementptr inbounds nuw i8, ptr %7, i64 40
  store i32 2, ptr %14, align 8, !tbaa !21
  %15 = getelementptr inbounds nuw i8, ptr %7, i64 44
  store i32 0, ptr %15, align 4
  %16 = getelementptr inbounds nuw i8, ptr %7, i64 48
  store ptr null, ptr %16, align 16, !tbaa !22
  %17 = getelementptr inbounds nuw i8, ptr %7, i64 56
  store i64 1, ptr %17, align 8, !tbaa !23
  %18 = getelementptr inbounds nuw i8, ptr %7, i64 64
  %19 = getelementptr inbounds nuw i8, ptr %7, i64 88
  call void @llvm.memset.p0.i64(ptr noundef nonnull align 16 dereferenceable(24) %18, i8 0, i64 24, i1 false)
  store i32 9, ptr %19, align 8, !tbaa !8
  %20 = getelementptr inbounds nuw i8, ptr %7, i64 92
  store i32 0, ptr %20, align 4, !tbaa !18
  %21 = getelementptr inbounds nuw i8, ptr %7, i64 96
  store ptr @.str.17, ptr %21, align 16, !tbaa !13
  %22 = getelementptr inbounds nuw i8, ptr %7, i64 104
  %23 = getelementptr inbounds nuw i8, ptr %5, i64 16
  store ptr %23, ptr %22, align 8, !tbaa !14
  %24 = getelementptr inbounds nuw i8, ptr %7, i64 112
  store ptr null, ptr %24, align 16, !tbaa !19
  %25 = getelementptr inbounds nuw i8, ptr %7, i64 120
  store ptr @.str.18, ptr %25, align 8, !tbaa !20
  %26 = getelementptr inbounds nuw i8, ptr %7, i64 128
  store i32 2, ptr %26, align 16, !tbaa !21
  %27 = getelementptr inbounds nuw i8, ptr %7, i64 132
  store i32 0, ptr %27, align 4
  %28 = getelementptr inbounds nuw i8, ptr %7, i64 136
  store ptr null, ptr %28, align 8, !tbaa !22
  %29 = getelementptr inbounds nuw i8, ptr %7, i64 144
  store i64 1, ptr %29, align 16, !tbaa !23
  %30 = getelementptr inbounds nuw i8, ptr %7, i64 152
  call void @llvm.memset.p0.i64(ptr noundef nonnull align 8 dereferenceable(112) %30, i8 0, i64 112, i1 false)
  %31 = call i32 @parse_options(i32 noundef %0, ptr noundef %1, ptr noundef %2, ptr noundef nonnull %7, ptr noundef nonnull %6, i32 noundef 0) #8
  %.not = icmp eq i32 %31, 0
  br i1 %.not, label %34, label %32

32:                                               ; preds = %4
  %33 = call fastcc ptr @_(ptr noundef nonnull @.str.19)
  call void @usage(ptr noundef %33) #9
  unreachable

34:                                               ; preds = %4
  %35 = load ptr, ptr @the_repository, align 8, !tbaa !24
  call void @repo_config(ptr noundef %35, ptr noundef nonnull @git_fsck_config, ptr noundef nonnull %5) #8
  %36 = load ptr, ptr @the_repository, align 8, !tbaa !24
  call void @prepare_repo_settings(ptr noundef %36) #8
  %37 = call ptr @get_worktrees() #8
  %38 = load ptr, ptr %37, align 8, !tbaa !46
  %.not1516 = icmp eq ptr %38, null
  br i1 %.not1516, label %._crit_edge, label %.lr.ph

._crit_edge:                                      ; preds = %.lr.ph, %34
  %.013.lcssa = phi i32 [ 0, %34 ], [ %44, %.lr.ph ]
  call void @fsck_options_clear(ptr noundef nonnull %5) #8
  call void @free_worktrees(ptr noundef nonnull %37) #8
  call void @llvm.lifetime.end.p0(i64 264, ptr nonnull %7) #8
  call void @llvm.lifetime.end.p0(i64 16, ptr nonnull %6) #8
  call void @llvm.lifetime.end.p0(i64 240, ptr nonnull %5) #8
  ret i32 %.013.lcssa

.lr.ph:                                           ; preds = %34, %.lr.ph
  %39 = phi ptr [ %47, %.lr.ph ], [ %38, %34 ]
  %.018 = phi i64 [ %45, %.lr.ph ], [ 0, %34 ]
  %.01317 = phi i32 [ %44, %.lr.ph ], [ 0, %34 ]
  %40 = getelementptr inbounds nuw ptr, ptr %37, i64 %.018
  %41 = call ptr @get_worktree_ref_store(ptr noundef nonnull %39) #8
  %42 = load ptr, ptr %40, align 8, !tbaa !46
  %43 = call i32 @refs_fsck(ptr noundef %41, ptr noundef nonnull %5, ptr noundef %42) #8
  %44 = or i32 %43, %.01317
  %45 = add i64 %.018, 1
  %46 = getelementptr inbounds nuw ptr, ptr %37, i64 %45
  %47 = load ptr, ptr %46, align 8, !tbaa !46
  %.not15 = icmp eq ptr %47, null
  br i1 %.not15, label %._crit_edge, label %.lr.ph, !llvm.loop !48
}